target datalayout = "e-m:e-p270:32:32-p271:32:32-p272:64:64-i64:64-i128:128-f80:128-n8:16:32:64-S128"
target triple = "x86_64-pc-linux-gnu"

%"struct.icu_77::FormattedStringBuilder::Field" = type { i8 }
%"class.icu_77::FormattedStringBuilder" = type { i8, %"union.icu_77::FormattedStringBuilder::ValueOrHeapArray", %"union.icu_77::FormattedStringBuilder::ValueOrHeapArray.0", i32, i32 }
%"union.icu_77::FormattedStringBuilder::ValueOrHeapArray" = type { %struct.anon, [64 x i8] }
%struct.anon = type { ptr, i32 }
%"union.icu_77::FormattedStringBuilder::ValueOrHeapArray.0" = type { %struct.anon.1, [24 x i8] }
%struct.anon.1 = type { ptr, i32 }

; Function Attrs: inlinehint mustprogress nounwind uwtable
define linkonce_odr noundef ptr @_ZNK6icu_7722FormattedStringBuilder11getFieldPtrEv(ptr noundef nonnull align 8 dereferenceable(136) %0) #5 comdat align 2 {
  %2 = alloca ptr, align 8
  store ptr %0, ptr %2, align 8, !tbaa !3
  %3 = load ptr, ptr %2, align 8
  %4 = getelementptr inbounds nuw %"class.icu_77::FormattedStringBuilder", ptr %3, i32 0, i32 0
  %5 = load i8, ptr %4, align 8, !tbaa !8, !range !14, !noundef !15
  %6 = trunc i8 %5 to i1
  br i1 %6, label %7, label %11

7:                                                ; preds = %1
  %8 = getelementptr inbounds nuw %"class.icu_77::FormattedStringBuilder", ptr %3, i32 0, i32 2
  %9 = getelementptr inbounds nuw %struct.anon.1, ptr %8, i32 0, i32 0
  %10 = load ptr, ptr %9, align 8, !tbaa !16
  br label %14

11:                                               ; preds = %1
  %12 = getelementptr inbounds nuw %"class.icu_77::FormattedStringBuilder", ptr %3, i32 0, i32 2
  %13 = getelementptr inbounds [40 x %"struct.icu_77::FormattedStringBuilder::Field"], ptr %12, i64 0, i64 0
  br label %14

14:                                               ; preds = %11, %7
  %15 = phi ptr [ %10, %7 ], [ %13, %11 ]
  ret ptr %15
}

; Function Attrs: inlinehint mustprogress nounwind uwtable
define linkonce_odr noundef zeroext i1 @_ZNK6icu_7722FormattedStringBuilder5FieldeqERKS1_(ptr noundef nonnull align 1 dereferenceable(1) %0, ptr noundef nonnull align 1 dereferenceable(1) %1) #5 comdat align 2 {
  %3 = alloca ptr, align 8
  %4 = alloca ptr, align 8
  store ptr %0, ptr %3, align 8, !tbaa !20
  store ptr %1, ptr %4, align 8, !tbaa !20
  %5 = load ptr, ptr %3, align 8
  %6 = getelementptr inbounds nuw %"struct.icu_77::FormattedStringBuilder::Field", ptr %5, i32 0, i32 0
  %7 = load i8, ptr %6, align 1, !tbaa !46
  %8 = zext i8 %7 to i32
  %9 = load ptr, ptr %4, align 8, !tbaa !20
  %10 = getelementptr inbounds nuw %"struct.icu_77::FormattedStringBuilder::Field", ptr %9, i32 0, i32 0
  %11 = load i8, ptr %10, align 1, !tbaa !46
  %12 = zext i8 %11 to i32
  %13 = icmp eq i32 %8, %12
  ret i1 %13
}

; Function Attrs: inlinehint mustprogress nounwind uwtable
define linkonce_odr i8 @_ZNK6icu_7722FormattedStringBuilder7fieldAtEi(ptr noundef nonnull align 8 dereferenceable(136) %0, i32 noundef %1) #5 comdat align 2 {
  %3 = alloca %"struct.icu_77::FormattedStringBuilder::Field", align 1
  %4 = alloca ptr, align 8
  %5 = alloca i32, align 4
  store ptr %0, ptr %4, align 8, !tbaa !3
  store i32 %1, ptr %5, align 4, !tbaa !17
  %6 = load ptr, ptr %4, align 8
  %7 = call noundef ptr @_ZNK6icu_7722FormattedStringBuilder11getFieldPtrEv(ptr noundef nonnull align 8 dereferenceable(136) %6)
  %8 = getelementptr inbounds nuw %"class.icu_77::FormattedStringBuilder", ptr %6, i32 0, i32 3
  %9 = load i32, ptr %8, align 8, !tbaa !12
  %10 = load i32, ptr %5, align 4, !tbaa !17
  %11 = add nsw i32 %9, %10
  %12 = sext i32 %11 to i64
  %13 = getelementptr inbounds %"struct.icu_77::FormattedStringBuilder::Field", ptr %7, i64 %12
  call void @llvm.memcpy.p0.p0.i64(ptr align 1 %3, ptr align 1 %13, i64 1, i1 false), !tbaa.struct !31
  %14 = getelementptr inbounds nuw %"struct.icu_77::FormattedStringBuilder::Field", ptr %3, i32 0, i32 0
  %15 = load i8, ptr %14, align 1
  ret i8 %15
}

; Function Attrs: mustprogress uwtable
define noundef zeroext i1 @_ZNK6icu_7722FormattedStringBuilder13containsFieldENS0_5FieldE(ptr noundef nonnull align 8 dereferenceable(136) %0, i8 %1) #3 align 2 {
  %3 = alloca i1, align 1
  %4 = alloca %"struct.icu_77::FormattedStringBuilder::Field", align 1
  %5 = alloca ptr, align 8
  %6 = alloca i32, align 4
  %7 = alloca i32, align 4
  %8 = alloca %"struct.icu_77::FormattedStringBuilder::Field", align 1
  %9 = getelementptr inbounds nuw %"struct.icu_77::FormattedStringBuilder::Field", ptr %4, i32 0, i32 0
  store i8 %1, ptr %9, align 1
  store ptr %0, ptr %5, align 8, !tbaa !3
  %10 = load ptr, ptr %5, align 8
  call void @llvm.lifetime.start.p0(i64 4, ptr %6) #11
  store i32 0, ptr %6, align 4, !tbaa !17
  br label %11

11:                                               ; preds = %24, %2
  %12 = load i32, ptr %6, align 4, !tbaa !17
  %13 = getelementptr inbounds nuw %"class.icu_77::FormattedStringBuilder", ptr %10, i32 0, i32 4
  %14 = load i32, ptr %13, align 4, !tbaa !13
  %15 = icmp slt i32 %12, %14
  br i1 %15, label %17, label %16

16:                                               ; preds = %11
  store i32 2, ptr %7, align 4
  br label %27

17:                                               ; preds = %11
  call void @llvm.lifetime.start.p0(i64 1, ptr %8) #11
  %18 = load i32, ptr %6, align 4, !tbaa !17
  %19 = call i8 @_ZNK6icu_7722FormattedStringBuilder7fieldAtEi(ptr noundef nonnull align 8 dereferenceable(136) %10, i32 noundef %18)
  %20 = getelementptr inbounds nuw %"struct.icu_77::FormattedStringBuilder::Field", ptr %8, i32 0, i32 0
  store i8 %19, ptr %20, align 1
  %21 = call noundef zeroext i1 @_ZNK6icu_7722FormattedStringBuilder5FieldeqERKS1_(ptr noundef nonnull align 1 dereferenceable(1) %4, ptr noundef nonnull align 1 dereferenceable(1) %8)
  call void @llvm.lifetime.end.p0(i64 1, ptr %8) #11
  br i1 %21, label %22, label %23

22:                                               ; preds = %17
  store i1 true, ptr %3, align 1
  store i32 1, ptr %7, align 4
  br label %27

23:                                               ; preds = %17
  br label %24

24:                                               ; preds = %23
  %25 = load i32, ptr %6, align 4, !tbaa !17
  %26 = add nsw i32 %25, 1
  store i32 %26, ptr %6, align 4, !tbaa !17
  br label %11, !llvm.loop !49

27:                                               ; preds = %22, %16
  call void @llvm.lifetime.end.p0(i64 4, ptr %6) #11
  %28 = load i32, ptr %7, align 4
  switch i32 %28, label %32 [
    i32 2, label %29
    i32 1, label %30
  ]

29:                                               ; preds = %27
  store i1 false, ptr %3, align 1
  br label %30

30:                                               ; preds = %29, %27
  %31 = load i1, ptr %3, align 1
  ret i1 %31

32:                                               ; preds = %27
  unreachable
}